ccopy_reg
_reconstructor
p0
(cgoogle.oauth2.credentials
Credentials
p1
c__builtin__
object
p2
Ntp3
Rp4
(dp5
S'_token_uri'
p6
Vhttps://oauth2.googleapis.com/token
p7
sS'_client_secret'
p8
Vd7q-lATYVBPmepG17tu-IRrA
p9
sS'_id_token'
p10
NsS'token'
p11
Vya29.GluVBqkxgq3W6Dv6elToMRSPALpOF3ltAPVPtzzryg4OFn6E8sbnFgW0ao-sCgyIe8AcCNuaClzRklg-M8OqeTRN1_uwxl9M8leVZgaKxKFAvYz8wS53gsbeJe2U
p12
sS'_refresh_token'
p13
V1/aj-OUPIAzKfjvVVw4wAB8uzp-3kj-VFpxCGG-cB4lDE
p14
sS'_scopes'
p15
(lp16
S'https://www.googleapis.com/auth/calendar.readonly'
p17
asS'_client_id'
p18
V73447846436-1of4e7ohfpd8mut2kd0esitui02uo4r4.apps.googleusercontent.com
p19
sS'expiry'
p20
cdatetime
datetime
p21
(S'\x07\xe3\x01\x12\x11\x0b(\t\xc2\x8a'
p22
tp23
Rp24
sb.